; Function Attrs: nounwind uwtable
define internal void @release_disp_cb(ptr noundef %0) #0 {
  %2 = load i8, ptr getelementptr inbounds nuw (i8, ptr @lv_global, i64 1), align 1, !tbaa !33, !range !42, !noundef !43
  %3 = trunc nuw i8 %2 to i1
  br i1 %3, label %4, label %lv_sdl_quit.exit

4:                                                ; preds = %1
  %.b1.i = load i1, ptr @inited, align 1
  br i1 %.b1.i, label %5, label %lv_sdl_quit.exit

5:                                                ; preds = %4
  tail call void @SDL_Quit() #6
  %6 = load ptr, ptr @event_handler_timer, align 8, !tbaa !3
  tail call void @lv_timer_delete(ptr noundef %6) #6
  store ptr null, ptr @event_handler_timer, align 8, !tbaa !3
  store i1 false, ptr @inited, align 1
  br label %lv_sdl_quit.exit

lv_sdl_quit.exit:                                 ; preds = %5, %4, %1
  %7 = tail call ptr @lv_event_get_user_data(ptr noundef %0) #6
  %8 = tail call ptr @lv_display_get_driver_data(ptr noundef %7) #6
  %9 = getelementptr inbounds nuw i8, ptr %8, i64 16
  %10 = load ptr, ptr %9, align 8, !tbaa !30
  tail call void @SDL_DestroyTexture(ptr noundef %10) #6
  %11 = getelementptr inbounds nuw i8, ptr %8, i64 8
  %12 = load ptr, ptr %11, align 8, !tbaa !23
  tail call void @SDL_DestroyRenderer(ptr noundef %12) #6
  %13 = load ptr, ptr %8, align 8, !tbaa !22
  tail call void @SDL_DestroyWindow(ptr noundef %13) #6
  %14 = getelementptr inbounds nuw i8, ptr %8, i64 24
  %15 = load ptr, ptr %14, align 8, !tbaa !24
  %.not = icmp eq ptr %15, null
  br i1 %.not, label %17, label %16

16:                                               ; preds = %lv_sdl_quit.exit
  tail call void @free(ptr noundef nonnull %15) #6
  br label %17

17:                                               ; preds = %16, %lv_sdl_quit.exit
  %18 = getelementptr inbounds nuw i8, ptr %8, i64 32
  %19 = load ptr, ptr %18, align 8, !tbaa !25
  %.not18 = icmp eq ptr %19, null
  br i1 %.not18, label %21, label %20

20:                                               ; preds = %17
  tail call void @free(ptr noundef nonnull %19) #6
  br label %21

21:                                               ; preds = %20, %17
  %22 = getelementptr inbounds nuw i8, ptr %8, i64 48
  %23 = load ptr, ptr %22, align 8, !tbaa !44
  %.not19 = icmp eq ptr %23, null
  br i1 %.not19, label %25, label %24

24:                                               ; preds = %21
  tail call void @free(ptr noundef nonnull %23) #6
  br label %25

25:                                               ; preds = %24, %21
  %26 = getelementptr inbounds nuw i8, ptr %8, i64 56
  %27 = load ptr, ptr %26, align 8, !tbaa !45
  %.not20 = icmp eq ptr %27, null
  br i1 %.not20, label %29, label %28

28:                                               ; preds = %25
  tail call void @free(ptr noundef nonnull %27) #6
  br label %29

29:                                               ; preds = %28, %25
  tail call void @lv_free(ptr noundef nonnull %8) #6
  tail call void @lv_display_set_driver_data(ptr noundef %7, ptr noundef null) #6
  ret void
}